; Function Attrs: mustprogress uwtable
define void @_Z44_gmx_sel_lexer_rethrow_exception_if_occurredPv(ptr noundef %0) local_unnamed_addr #0 personality ptr @__gxx_personality_v0 {
  %2 = alloca %"class.std::__exception_ptr::exception_ptr", align 8
  %3 = alloca %"class.std::__exception_ptr::exception_ptr", align 8
  %4 = alloca %"class.std::__exception_ptr::exception_ptr", align 8
  %5 = tail call noundef ptr @_Z20_gmx_sel_yyget_extraPv(ptr noundef %0)
  %6 = getelementptr inbounds i8, ptr %5, i64 8
  %7 = load ptr, ptr %6, align 8
  %.not = icmp eq ptr %7, null
  br i1 %.not, label %18, label %_ZNSt15__exception_ptr13exception_ptrC2ERKS0_.exit

_ZNSt15__exception_ptr13exception_ptrC2ERKS0_.exit: ; preds = %1
  store ptr %7, ptr %3, align 8
  call void @_ZNSt15__exception_ptr13exception_ptr9_M_addrefEv(ptr noundef nonnull align 8 dereferenceable(8) %3) #13
  call void @llvm.lifetime.start.p0(i64 8, ptr nonnull %2)
  %8 = load ptr, ptr %6, align 8
  store ptr %8, ptr %2, align 8
  store ptr null, ptr %6, align 8
  %.not.i.i = icmp eq ptr %8, null
  br i1 %.not.i.i, label %_ZNSt15__exception_ptr13exception_ptraSEOS0_.exit.thread, label %_ZNSt15__exception_ptr13exception_ptraSEOS0_.exit

_ZNSt15__exception_ptr13exception_ptraSEOS0_.exit.thread: ; preds = %_ZNSt15__exception_ptr13exception_ptrC2ERKS0_.exit
  call void @llvm.lifetime.end.p0(i64 8, ptr nonnull %2)
  br label %_ZNSt15__exception_ptr13exception_ptrD2Ev.exit

_ZNSt15__exception_ptr13exception_ptraSEOS0_.exit: ; preds = %_ZNSt15__exception_ptr13exception_ptrC2ERKS0_.exit
  call void @_ZNSt15__exception_ptr13exception_ptr10_M_releaseEv(ptr noundef nonnull align 8 dereferenceable(8) %2) #13
  call void @llvm.lifetime.end.p0(i64 8, ptr nonnull %2)
  br label %_ZNSt15__exception_ptr13exception_ptrD2Ev.exit

_ZNSt15__exception_ptr13exception_ptrD2Ev.exit:   ; preds = %_ZNSt15__exception_ptr13exception_ptraSEOS0_.exit, %_ZNSt15__exception_ptr13exception_ptraSEOS0_.exit.thread
  %9 = load ptr, ptr %3, align 8
  store ptr %9, ptr %4, align 8
  %.not.i6 = icmp eq ptr %9, null
  br i1 %.not.i6, label %_ZNSt15__exception_ptr13exception_ptrC2ERKS0_.exit7, label %10

10:                                               ; preds = %_ZNSt15__exception_ptr13exception_ptrD2Ev.exit
  call void @_ZNSt15__exception_ptr13exception_ptr9_M_addrefEv(ptr noundef nonnull align 8 dereferenceable(8) %4) #13
  br label %_ZNSt15__exception_ptr13exception_ptrC2ERKS0_.exit7

_ZNSt15__exception_ptr13exception_ptrC2ERKS0_.exit7: ; preds = %_ZNSt15__exception_ptr13exception_ptrD2Ev.exit, %10
  invoke void @_ZSt17rethrow_exceptionNSt15__exception_ptr13exception_ptrE(ptr noundef nonnull %4) #14
          to label %11 unwind label %12

11:                                               ; preds = %_ZNSt15__exception_ptr13exception_ptrC2ERKS0_.exit7
  unreachable

12:                                               ; preds = %_ZNSt15__exception_ptr13exception_ptrC2ERKS0_.exit7
  %13 = landingpad { ptr, i32 }
          cleanup
  %14 = load ptr, ptr %4, align 8
  %.not.i8 = icmp eq ptr %14, null
  br i1 %.not.i8, label %_ZNSt15__exception_ptr13exception_ptrD2Ev.exit9, label %15

15:                                               ; preds = %12
  call void @_ZNSt15__exception_ptr13exception_ptr10_M_releaseEv(ptr noundef nonnull align 8 dereferenceable(8) %4) #13
  br label %_ZNSt15__exception_ptr13exception_ptrD2Ev.exit9

_ZNSt15__exception_ptr13exception_ptrD2Ev.exit9:  ; preds = %12, %15
  %16 = load ptr, ptr %3, align 8
  %.not.i10 = icmp eq ptr %16, null
  br i1 %.not.i10, label %_ZNSt15__exception_ptr13exception_ptrD2Ev.exit11, label %17

17:                                               ; preds = %_ZNSt15__exception_ptr13exception_ptrD2Ev.exit9
  call void @_ZNSt15__exception_ptr13exception_ptr10_M_releaseEv(ptr noundef nonnull align 8 dereferenceable(8) %3) #13
  br label %_ZNSt15__exception_ptr13exception_ptrD2Ev.exit11

_ZNSt15__exception_ptr13exception_ptrD2Ev.exit11: ; preds = %_ZNSt15__exception_ptr13exception_ptrD2Ev.exit9, %17
  resume { ptr, i32 } %13

18:                                               ; preds = %1
  ret void
}